target datalayout = "e-m:e-p270:32:32-p271:32:32-p272:64:64-i64:64-i128:128-f80:128-n8:16:32:64-S128"
target triple = "x86_64-pc-linux-gnu"

%"class.std::shared_ptr" = type { %"class.std::__shared_ptr" }
%"class.std::__shared_ptr" = type { ptr, %"class.std::__shared_count" }
%"class.std::__shared_count" = type { ptr }
%"class.open_spiel::State.base" = type <{ ptr, %"class.std::shared_ptr", i32, i32, %"class.std::vector", i32 }>
%"class.std::vector" = type { %"struct.std::_Vector_base" }
%"struct.std::_Vector_base" = type { %"struct.std::_Vector_base<open_spiel::State::PlayerAction, std::allocator<open_spiel::State::PlayerAction>>::_Vector_impl" }
%"struct.std::_Vector_base<open_spiel::State::PlayerAction, std::allocator<open_spiel::State::PlayerAction>>::_Vector_impl" = type { %"struct.std::_Vector_base<open_spiel::State::PlayerAction, std::allocator<open_spiel::State::PlayerAction>>::_Vector_impl_data" }
%"struct.std::_Vector_base<open_spiel::State::PlayerAction, std::allocator<open_spiel::State::PlayerAction>>::_Vector_impl_data" = type { ptr, ptr, ptr }
%"struct.std::array.24" = type { [8 x i32] }
%"class.open_spiel::tiny_bridge::TinyBridgePlayState" = type { %"class.open_spiel::State.base", i32, i32, %"struct.std::array.24", %"struct.std::array.26", %"class.std::vector.27" }
%"struct.std::array.26" = type { [2 x i32] }
%"class.std::vector.27" = type { %"struct.std::_Vector_base.28" }
%"struct.std::_Vector_base.28" = type { %"struct.std::_Vector_base<std::pair<open_spiel::tiny_bridge::Seat, int>, std::allocator<std::pair<open_spiel::tiny_bridge::Seat, int>>>::_Vector_impl" }
%"struct.std::_Vector_base<std::pair<open_spiel::tiny_bridge::Seat, int>, std::allocator<std::pair<open_spiel::tiny_bridge::Seat, int>>>::_Vector_impl" = type { %"struct.std::_Vector_base<std::pair<open_spiel::tiny_bridge::Seat, int>, std::allocator<std::pair<open_spiel::tiny_bridge::Seat, int>>>::_Vector_impl_data" }
%"struct.std::_Vector_base<std::pair<open_spiel::tiny_bridge::Seat, int>, std::allocator<std::pair<open_spiel::tiny_bridge::Seat, int>>>::_Vector_impl_data" = type { ptr, ptr, ptr }

; Function Attrs: mustprogress nounwind uwtable
define linkonce_odr noundef nonnull align 4 dereferenceable(4) ptr @_ZNSt14__array_traitsIN10open_spiel11tiny_bridge4SeatELm2EE6_S_refERA2_KS2_m(ptr noundef nonnull align 4 dereferenceable(8) %0, i64 noundef %1) #5 comdat align 2 {
  %3 = alloca ptr, align 8
  %4 = alloca i64, align 8
  store ptr %0, ptr %3, align 8
  store i64 %1, ptr %4, align 8
  %5 = load ptr, ptr %3, align 8
  %6 = load i64, ptr %4, align 8
  %7 = getelementptr inbounds [2 x i32], ptr %5, i64 0, i64 %6
  ret ptr %7
}

; Function Attrs: mustprogress nounwind uwtable
define linkonce_odr noundef nonnull align 4 dereferenceable(4) ptr @_ZNKSt5arrayIN10open_spiel11tiny_bridge4SeatELm2EEixEm(ptr noundef nonnull align 4 dereferenceable(8) %0, i64 noundef %1) #5 comdat align 2 {
  %3 = alloca ptr, align 8
  %4 = alloca i64, align 8
  store ptr %0, ptr %3, align 8
  store i64 %1, ptr %4, align 8
  %5 = load ptr, ptr %3, align 8
  %6 = getelementptr inbounds nuw %"struct.std::array.26", ptr %5, i32 0, i32 0
  %7 = load i64, ptr %4, align 8
  %8 = call noundef nonnull align 4 dereferenceable(4) ptr @_ZNSt14__array_traitsIN10open_spiel11tiny_bridge4SeatELm2EE6_S_refERA2_KS2_m(ptr noundef nonnull align 4 dereferenceable(8) %6, i64 noundef %7) #3
  ret ptr %8
}

; Function Attrs: mustprogress nounwind uwtable
define linkonce_odr noundef i64 @_ZNKSt6vectorISt4pairIN10open_spiel11tiny_bridge4SeatEiESaIS4_EE4sizeEv(ptr noundef nonnull align 8 dereferenceable(24) %0) #5 comdat align 2 {
  %2 = alloca ptr, align 8
  store ptr %0, ptr %2, align 8
  %3 = load ptr, ptr %2, align 8
  %4 = getelementptr inbounds nuw %"struct.std::_Vector_base.28", ptr %3, i32 0, i32 0
  %5 = getelementptr inbounds nuw %"struct.std::_Vector_base<std::pair<open_spiel::tiny_bridge::Seat, int>, std::allocator<std::pair<open_spiel::tiny_bridge::Seat, int>>>::_Vector_impl_data", ptr %4, i32 0, i32 1
  %6 = load ptr, ptr %5, align 8
  %7 = getelementptr inbounds nuw %"struct.std::_Vector_base.28", ptr %3, i32 0, i32 0
  %8 = getelementptr inbounds nuw %"struct.std::_Vector_base<std::pair<open_spiel::tiny_bridge::Seat, int>, std::allocator<std::pair<open_spiel::tiny_bridge::Seat, int>>>::_Vector_impl_data", ptr %7, i32 0, i32 0
  %9 = load ptr, ptr %8, align 8
  %10 = ptrtoint ptr %6 to i64
  %11 = ptrtoint ptr %9 to i64
  %12 = sub i64 %10, %11
  %13 = sdiv exact i64 %12, 8
  ret i64 %13
}

; Function Attrs: mustprogress nounwind uwtable
define noundef i32 @_ZNK10open_spiel11tiny_bridge19TinyBridgePlayState11CurrentHandEv(ptr noundef nonnull align 8 dereferenceable(136) %0) #5 align 2 {
  %2 = alloca ptr, align 8
  store ptr %0, ptr %2, align 8
  %3 = load ptr, ptr %2, align 8
  %4 = getelementptr inbounds nuw %"class.open_spiel::tiny_bridge::TinyBridgePlayState", ptr %3, i32 0, i32 5
  %5 = call noundef i64 @_ZNKSt6vectorISt4pairIN10open_spiel11tiny_bridge4SeatEiESaIS4_EE4sizeEv(ptr noundef nonnull align 8 dereferenceable(24) %4) #3
  %6 = icmp ult i64 %5, 4
  br i1 %6, label %7, label %10

7:                                                ; preds = %1
  %8 = getelementptr inbounds nuw %"class.open_spiel::tiny_bridge::TinyBridgePlayState", ptr %3, i32 0, i32 2
  %9 = load i32, ptr %8, align 8
  br label %14

10:                                               ; preds = %1
  %11 = getelementptr inbounds nuw %"class.open_spiel::tiny_bridge::TinyBridgePlayState", ptr %3, i32 0, i32 4
  %12 = call noundef nonnull align 4 dereferenceable(4) ptr @_ZNKSt5arrayIN10open_spiel11tiny_bridge4SeatELm2EEixEm(ptr noundef nonnull align 4 dereferenceable(8) %11, i64 noundef 0) #3
  %13 = load i32, ptr %12, align 4
  br label %14

14:                                               ; preds = %10, %7
  %15 = phi i32 [ %9, %7 ], [ %13, %10 ]
  %16 = sext i32 %15 to i64
  %17 = getelementptr inbounds nuw %"class.open_spiel::tiny_bridge::TinyBridgePlayState", ptr %3, i32 0, i32 5
  %18 = call noundef i64 @_ZNKSt6vectorISt4pairIN10open_spiel11tiny_bridge4SeatEiESaIS4_EE4sizeEv(ptr noundef nonnull align 8 dereferenceable(24) %17) #3
  %19 = add i64 %16, %18
  %20 = urem i64 %19, 4
  %21 = trunc i64 %20 to i32
  ret i32 %21
}