; Function Attrs: mustprogress nofree norecurse nosync nounwind willreturn memory(argmem: read) uwtable
define noundef range(i32 0, 4) i32 @_ZNK10open_spiel11tiny_bridge19TinyBridgePlayState11CurrentHandEv(ptr nocapture noundef nonnull readonly align 8 dereferenceable(136) %0) local_unnamed_addr #9 align 2 {
  %2 = getelementptr inbounds nuw i8, ptr %0, i64 112
  %3 = getelementptr inbounds i8, ptr %0, i64 120
  %4 = load ptr, ptr %3, align 8
  %5 = load ptr, ptr %2, align 8
  %6 = ptrtoint ptr %4 to i64
  %7 = ptrtoint ptr %5 to i64
  %8 = sub i64 %6, %7
  %9 = ashr exact i64 %8, 3
  %10 = icmp ult i64 %9, 4
  %.in.v = select i1 %10, i64 64, i64 100
  %.in = getelementptr inbounds nuw i8, ptr %0, i64 %.in.v
  %11 = load i32, ptr %.in, align 4
  %12 = trunc i64 %9 to i32
  %13 = add i32 %11, %12
  %14 = and i32 %13, 3
  ret i32 %14
}